target datalayout = "e-m:e-p270:32:32-p271:32:32-p272:64:64-i64:64-i128:128-f80:128-n8:16:32:64-S128"
target triple = "x86_64-unknown-linux-gnu"

%"class.std::function" = type { %"class.std::_Function_base", ptr }
%"class.std::_Function_base" = type { %"union.std::_Any_data", ptr }
%"union.std::_Any_data" = type { %"union.std::_Nocopy_types" }
%"union.std::_Nocopy_types" = type { { i64, i64 } }
%"class.grpc_core::ChannelArgs" = type { %"class.grpc_core::AVL" }
%"class.grpc_core::AVL" = type { %"class.grpc_core::RefCountedPtr" }
%"class.grpc_core::RefCountedPtr" = type { ptr }
%"class.grpc_core::(anonymous namespace)::Chttp2ServerListener" = type { %"class.grpc_core::Server::ListenerInterface", ptr, ptr, %struct.grpc_resolved_address, %"class.std::function", ptr, %"class.grpc_core::ChannelArgs", %"class.absl::lts_20230802::Mutex", %"class.grpc_core::RefCountedPtr.65", i8, %"class.absl::lts_20230802::CondVar", i8, i8, %"class.std::map", %struct.grpc_closure, ptr, %"class.grpc_core::RefCountedPtr.72", %"class.std::shared_ptr" }
%"class.grpc_core::Server::ListenerInterface" = type { %"class.grpc_core::Orphanable" }
%"class.grpc_core::Orphanable" = type { ptr }
%struct.grpc_resolved_address = type { [128 x i8], i32 }
%"class.absl::lts_20230802::Mutex" = type { %"struct.std::atomic" }
%"struct.std::atomic" = type { %"struct.std::__atomic_base" }
%"struct.std::__atomic_base" = type { i64 }
%"class.grpc_core::RefCountedPtr.65" = type { ptr }
%"class.absl::lts_20230802::CondVar" = type { %"struct.std::atomic" }
%"class.std::map" = type { %"class.std::_Rb_tree" }
%"class.std::_Rb_tree" = type { %"struct.std::_Rb_tree<grpc_core::(anonymous namespace)::Chttp2ServerListener::ActiveConnection *, std::pair<grpc_core::(anonymous namespace)::Chttp2ServerListener::ActiveConnection *const, std::unique_ptr<grpc_core::(anonymous namespace)::Chttp2ServerListener::ActiveConnection, grpc_core::OrphanableDelete>>, std::_Select1st<std::pair<grpc_core::(anonymous namespace)::Chttp2ServerListener::ActiveConnection *const, std::unique_ptr<grpc_core::(anonymous namespace)::Chttp2ServerListener::ActiveConnection, grpc_core::OrphanableDelete>>>, std::less<grpc_core::(anonymous namespace)::Chttp2ServerListener::ActiveConnection *>>::_Rb_tree_impl" }
%"struct.std::_Rb_tree<grpc_core::(anonymous namespace)::Chttp2ServerListener::ActiveConnection *, std::pair<grpc_core::(anonymous namespace)::Chttp2ServerListener::ActiveConnection *const, std::unique_ptr<grpc_core::(anonymous namespace)::Chttp2ServerListener::ActiveConnection, grpc_core::OrphanableDelete>>, std::_Select1st<std::pair<grpc_core::(anonymous namespace)::Chttp2ServerListener::ActiveConnection *const, std::unique_ptr<grpc_core::(anonymous namespace)::Chttp2ServerListener::ActiveConnection, grpc_core::OrphanableDelete>>>, std::less<grpc_core::(anonymous namespace)::Chttp2ServerListener::ActiveConnection *>>::_Rb_tree_impl" = type { %"struct.std::_Rb_tree_key_compare", %"struct.std::_Rb_tree_header" }
%"struct.std::_Rb_tree_key_compare" = type { %"struct.std::less" }
%"struct.std::less" = type { i8 }
%"struct.std::_Rb_tree_header" = type { %"struct.std::_Rb_tree_node_base", i64 }
%"struct.std::_Rb_tree_node_base" = type { i32, ptr, ptr, ptr }
%struct.grpc_closure = type { %union.anon.70, ptr, ptr, %union.anon.71 }
%union.anon.70 = type { ptr }
%union.anon.71 = type { i64 }
%"class.grpc_core::RefCountedPtr.72" = type { ptr }
%"class.std::shared_ptr" = type { %"class.std::__shared_ptr" }
%"class.std::__shared_ptr" = type { ptr, %"class.std::__shared_count" }
%"class.std::__shared_count" = type { ptr }
%"class.grpc_core::RefCountedPtr.89" = type { ptr }
%"class.grpc_core::(anonymous namespace)::Chttp2ServerListener::ConfigFetcherWatcher" = type { %"class.grpc_server_config_fetcher::WatcherInterface", %"class.grpc_core::RefCountedPtr.89" }
%"class.grpc_server_config_fetcher::WatcherInterface" = type { ptr }

; Function Attrs: mustprogress uwtable
define internal void @_ZN9grpc_core12_GLOBAL__N_120Chttp2ServerListener5UnrefEv(ptr noundef nonnull align 8 dereferenceable(360) %this) #4 align 2 {
entry:
  %this.addr = alloca ptr, align 8
  store ptr %this, ptr %this.addr, align 8
  %this1 = load ptr, ptr %this.addr, align 8
  %tcp_server_ = getelementptr inbounds %"class.grpc_core::(anonymous namespace)::Chttp2ServerListener", ptr %this1, i32 0, i32 2
  %0 = load ptr, ptr %tcp_server_, align 8
  call void @_Z21grpc_tcp_server_unrefP15grpc_tcp_server(ptr noundef %0)
  ret void
}

; Function Attrs: mustprogress nounwind uwtable
define linkonce_odr void @_ZN26grpc_server_config_fetcher16WatcherInterfaceD2Ev(ptr noundef nonnull align 8 dereferenceable(8) %this) unnamed_addr #5 comdat align 2 {
entry:
  %this.addr = alloca ptr, align 8
  store ptr %this, ptr %this.addr, align 8
  ret void
}

; Function Attrs: mustprogress nounwind uwtable
define internal void @_ZN9grpc_core13RefCountedPtrINS_12_GLOBAL__N_120Chttp2ServerListenerEED2Ev(ptr noundef nonnull align 8 dereferenceable(8) %this) unnamed_addr #5 align 2 personality ptr @__gxx_personality_v0 {
entry:
  %this.addr = alloca ptr, align 8
  store ptr %this, ptr %this.addr, align 8
  %this1 = load ptr, ptr %this.addr, align 8
  %value_ = getelementptr inbounds %"class.grpc_core::RefCountedPtr.89", ptr %this1, i32 0, i32 0
  %0 = load ptr, ptr %value_, align 8
  %cmp = icmp ne ptr %0, null
  br i1 %cmp, label %if.then, label %if.end

if.then:                                          ; preds = %entry
  %value_2 = getelementptr inbounds %"class.grpc_core::RefCountedPtr.89", ptr %this1, i32 0, i32 0
  %1 = load ptr, ptr %value_2, align 8
  invoke void @_ZN9grpc_core12_GLOBAL__N_120Chttp2ServerListener5UnrefEv(ptr noundef nonnull align 8 dereferenceable(360) %1)
          to label %invoke.cont unwind label %terminate.lpad

invoke.cont:                                      ; preds = %if.then
  br label %if.end

if.end:                                           ; preds = %invoke.cont, %entry
  ret void

terminate.lpad:                                   ; preds = %if.then
  %2 = landingpad { ptr, i32 }
          catch ptr null
  %3 = extractvalue { ptr, i32 } %2, 0
  call void @__clang_call_terminate(ptr %3) #18
  unreachable
}

; Function Attrs: mustprogress nounwind uwtable
define internal void @_ZN9grpc_core12_GLOBAL__N_120Chttp2ServerListener20ConfigFetcherWatcherD2Ev(ptr noundef nonnull align 8 dereferenceable(16) %this) unnamed_addr #5 align 2 {
entry:
  %this.addr = alloca ptr, align 8
  store ptr %this, ptr %this.addr, align 8
  %this1 = load ptr, ptr %this.addr, align 8
  store ptr getelementptr inbounds ({ [6 x ptr] }, ptr @_ZTVN9grpc_core12_GLOBAL__N_120Chttp2ServerListener20ConfigFetcherWatcherE, i32 0, i32 0, i32 2), ptr %this1, align 8
  %listener_ = getelementptr inbounds %"class.grpc_core::(anonymous namespace)::Chttp2ServerListener::ConfigFetcherWatcher", ptr %this1, i32 0, i32 1
  call void @_ZN9grpc_core13RefCountedPtrINS_12_GLOBAL__N_120Chttp2ServerListenerEED2Ev(ptr noundef nonnull align 8 dereferenceable(8) %listener_) #3
  call void @_ZN26grpc_server_config_fetcher16WatcherInterfaceD2Ev(ptr noundef nonnull align 8 dereferenceable(8) %this1) #3
  ret void
}